target datalayout = "e-m:e-p270:32:32-p271:32:32-p272:64:64-i64:64-i128:128-f80:128-n8:16:32:64-S128"
target triple = "x86_64-pc-linux-gnu"

%struct.CompactAttribute = type { i32, i16, i8, i8, i8, i8, i8, i8, i8 }
%struct.TupleDescData = type { i32, i32, i32, i32, ptr, [0 x %struct.CompactAttribute] }
%struct.varattrib_1b = type { i8, [0 x i8] }
%struct.varattrib_1b_e = type { i8, i8, [0 x i8] }
%struct.anon = type { i32, [0 x i8] }

; Function Attrs: inlinehint nounwind uwtable
define internal ptr @DatumGetPointer(i64 noundef %0) #2 {
  %2 = alloca i64, align 8
  store i64 %0, ptr %2, align 8
  %3 = load i64, ptr %2, align 8
  %4 = inttoptr i64 %3 to ptr
  ret ptr %4
}

; Function Attrs: inlinehint nounwind uwtable
define internal ptr @TupleDescCompactAttr(ptr noundef %0, i32 noundef %1) #2 {
  %3 = alloca ptr, align 8
  %4 = alloca i32, align 4
  %5 = alloca ptr, align 8
  store ptr %0, ptr %3, align 8
  store i32 %1, ptr %4, align 4
  call void @llvm.lifetime.start.p0(i64 8, ptr %5) #8
  %6 = load ptr, ptr %3, align 8
  %7 = getelementptr inbounds nuw %struct.TupleDescData, ptr %6, i32 0, i32 5
  %8 = load i32, ptr %4, align 4
  %9 = sext i32 %8 to i64
  %10 = getelementptr inbounds [0 x %struct.CompactAttribute], ptr %7, i64 0, i64 %9
  store ptr %10, ptr %5, align 8
  %11 = load ptr, ptr %5, align 8
  call void @llvm.lifetime.end.p0(i64 8, ptr %5) #8
  ret ptr %11
}

; Function Attrs: nounwind uwtable
define dso_local i64 @heap_compute_data_size(ptr noundef %0, ptr noundef %1, ptr noundef %2) #0 {
  %4 = alloca ptr, align 8
  %5 = alloca ptr, align 8
  %6 = alloca ptr, align 8
  %7 = alloca i64, align 8
  %8 = alloca i32, align 4
  %9 = alloca i32, align 4
  %10 = alloca i64, align 8
  %11 = alloca ptr, align 8
  %12 = alloca i32, align 4
  store ptr %0, ptr %4, align 8
  store ptr %1, ptr %5, align 8
  store ptr %2, ptr %6, align 8
  call void @llvm.lifetime.start.p0(i64 8, ptr %7) #8
  store i64 0, ptr %7, align 8
  call void @llvm.lifetime.start.p0(i64 4, ptr %8) #8
  call void @llvm.lifetime.start.p0(i64 4, ptr %9) #8
  %13 = load ptr, ptr %4, align 8
  %14 = getelementptr inbounds nuw %struct.TupleDescData, ptr %13, i32 0, i32 0
  %15 = load i32, ptr %14, align 8
  store i32 %15, ptr %9, align 4
  store i32 0, ptr %8, align 4
  br label %16

16:                                               ; preds = %257, %3
  %17 = load i32, ptr %8, align 4
  %18 = load i32, ptr %9, align 4
  %19 = icmp slt i32 %17, %18
  br i1 %19, label %20, label %260

20:                                               ; preds = %16
  call void @llvm.lifetime.start.p0(i64 8, ptr %10) #8
  call void @llvm.lifetime.start.p0(i64 8, ptr %11) #8
  %21 = load ptr, ptr %6, align 8
  %22 = load i32, ptr %8, align 4
  %23 = sext i32 %22 to i64
  %24 = getelementptr inbounds i8, ptr %21, i64 %23
  %25 = load i8, ptr %24, align 1, !range !4, !noundef !5
  %26 = trunc i8 %25 to i1
  br i1 %26, label %27, label %28

27:                                               ; preds = %20
  store i32 4, ptr %12, align 4
  br label %254

28:                                               ; preds = %20
  %29 = load ptr, ptr %5, align 8
  %30 = load i32, ptr %8, align 4
  %31 = sext i32 %30 to i64
  %32 = getelementptr inbounds i64, ptr %29, i64 %31
  %33 = load i64, ptr %32, align 8
  store i64 %33, ptr %10, align 8
  %34 = load ptr, ptr %4, align 8
  %35 = load i32, ptr %8, align 4
  %36 = call ptr @TupleDescCompactAttr(ptr noundef %34, i32 noundef %35)
  store ptr %36, ptr %11, align 8
  %37 = load ptr, ptr %11, align 8
  %38 = getelementptr inbounds nuw %struct.CompactAttribute, ptr %37, i32 0, i32 1
  %39 = load i16, ptr %38, align 4
  %40 = sext i16 %39 to i32
  %41 = icmp eq i32 %40, -1
  br i1 %41, label %42, label %78

42:                                               ; preds = %28
  %43 = load ptr, ptr %11, align 8
  %44 = getelementptr inbounds nuw %struct.CompactAttribute, ptr %43, i32 0, i32 3
  %45 = load i8, ptr %44, align 1, !range !4, !noundef !5
  %46 = trunc i8 %45 to i1
  br i1 %46, label %47, label %78

47:                                               ; preds = %42
  %48 = load i64, ptr %10, align 8
  %49 = call ptr @DatumGetPointer(i64 noundef %48)
  %50 = getelementptr inbounds nuw %struct.varattrib_1b, ptr %49, i32 0, i32 0
  %51 = load i8, ptr %50, align 1
  %52 = zext i8 %51 to i32
  %53 = and i32 %52, 3
  %54 = icmp eq i32 %53, 0
  br i1 %54, label %55, label %78

55:                                               ; preds = %47
  %56 = load i64, ptr %10, align 8
  %57 = call ptr @DatumGetPointer(i64 noundef %56)
  %58 = getelementptr inbounds nuw %struct.anon, ptr %57, i32 0, i32 0
  %59 = load i32, ptr %58, align 4
  %60 = lshr i32 %59, 2
  %61 = and i32 %60, 1073741823
  %62 = sub i32 %61, 4
  %63 = zext i32 %62 to i64
  %64 = add i64 %63, 1
  %65 = icmp ule i64 %64, 127
  br i1 %65, label %66, label %78

66:                                               ; preds = %55
  %67 = load i64, ptr %10, align 8
  %68 = call ptr @DatumGetPointer(i64 noundef %67)
  %69 = getelementptr inbounds nuw %struct.anon, ptr %68, i32 0, i32 0
  %70 = load i32, ptr %69, align 4
  %71 = lshr i32 %70, 2
  %72 = and i32 %71, 1073741823
  %73 = sub i32 %72, 4
  %74 = zext i32 %73 to i64
  %75 = add i64 %74, 1
  %76 = load i64, ptr %7, align 8
  %77 = add i64 %76, %75
  store i64 %77, ptr %7, align 8
  br label %253

78:                                               ; preds = %55, %47, %42, %28
  %79 = load ptr, ptr %11, align 8
  %80 = getelementptr inbounds nuw %struct.CompactAttribute, ptr %79, i32 0, i32 1
  %81 = load i16, ptr %80, align 4
  %82 = sext i16 %81 to i32
  %83 = icmp eq i32 %82, -1
  br i1 %83, label %84, label %121

84:                                               ; preds = %78
  %85 = load i64, ptr %10, align 8
  %86 = call ptr @DatumGetPointer(i64 noundef %85)
  %87 = getelementptr inbounds nuw %struct.varattrib_1b, ptr %86, i32 0, i32 0
  %88 = load i8, ptr %87, align 1
  %89 = zext i8 %88 to i32
  %90 = icmp eq i32 %89, 1
  br i1 %90, label %91, label %121

91:                                               ; preds = %84
  %92 = load i64, ptr %10, align 8
  %93 = call ptr @DatumGetPointer(i64 noundef %92)
  %94 = getelementptr inbounds nuw %struct.varattrib_1b_e, ptr %93, i32 0, i32 1
  %95 = load i8, ptr %94, align 1
  %96 = zext i8 %95 to i32
  %97 = and i32 %96, -2
  %98 = icmp eq i32 %97, 2
  br i1 %98, label %99, label %121

99:                                               ; preds = %91
  %100 = load i64, ptr %7, align 8
  %101 = load ptr, ptr %11, align 8
  %102 = getelementptr inbounds nuw %struct.CompactAttribute, ptr %101, i32 0, i32 8
  %103 = load i8, ptr %102, align 4
  %104 = zext i8 %103 to i32
  %105 = sub i32 %104, 1
  %106 = sext i32 %105 to i64
  %107 = add i64 %100, %106
  %108 = load ptr, ptr %11, align 8
  %109 = getelementptr inbounds nuw %struct.CompactAttribute, ptr %108, i32 0, i32 8
  %110 = load i8, ptr %109, align 4
  %111 = zext i8 %110 to i32
  %112 = sub i32 %111, 1
  %113 = sext i32 %112 to i64
  %114 = xor i64 %113, -1
  %115 = and i64 %107, %114
  store i64 %115, ptr %7, align 8
  %116 = load i64, ptr %10, align 8
  %117 = call ptr @DatumGetEOHP(i64 noundef %116)
  %118 = call i64 @EOH_get_flat_size(ptr noundef %117)
  %119 = load i64, ptr %7, align 8
  %120 = add i64 %119, %118
  store i64 %120, ptr %7, align 8
  br label %252

121:                                              ; preds = %91, %84, %78
  %122 = load ptr, ptr %11, align 8
  %123 = getelementptr inbounds nuw %struct.CompactAttribute, ptr %122, i32 0, i32 1
  %124 = load i16, ptr %123, align 4
  %125 = sext i16 %124 to i32
  %126 = icmp eq i32 %125, -1
  br i1 %126, label %127, label %137

127:                                              ; preds = %121
  %128 = load i64, ptr %10, align 8
  %129 = call ptr @DatumGetPointer(i64 noundef %128)
  %130 = getelementptr inbounds nuw %struct.varattrib_1b, ptr %129, i32 0, i32 0
  %131 = load i8, ptr %130, align 1
  %132 = zext i8 %131 to i32
  %133 = and i32 %132, 1
  %134 = icmp eq i32 %133, 1
  br i1 %134, label %135, label %137

135:                                              ; preds = %127
  %136 = load i64, ptr %7, align 8
  br label %154

137:                                              ; preds = %127, %121
  %138 = load i64, ptr %7, align 8
  %139 = load ptr, ptr %11, align 8
  %140 = getelementptr inbounds nuw %struct.CompactAttribute, ptr %139, i32 0, i32 8
  %141 = load i8, ptr %140, align 4
  %142 = zext i8 %141 to i32
  %143 = sub i32 %142, 1
  %144 = sext i32 %143 to i64
  %145 = add i64 %138, %144
  %146 = load ptr, ptr %11, align 8
  %147 = getelementptr inbounds nuw %struct.CompactAttribute, ptr %146, i32 0, i32 8
  %148 = load i8, ptr %147, align 4
  %149 = zext i8 %148 to i32
  %150 = sub i32 %149, 1
  %151 = sext i32 %150 to i64
  %152 = xor i64 %151, -1
  %153 = and i64 %145, %152
  br label %154

154:                                              ; preds = %137, %135
  %155 = phi i64 [ %136, %135 ], [ %153, %137 ]
  store i64 %155, ptr %7, align 8
  %156 = load ptr, ptr %11, align 8
  %157 = getelementptr inbounds nuw %struct.CompactAttribute, ptr %156, i32 0, i32 1
  %158 = load i16, ptr %157, align 4
  %159 = sext i16 %158 to i32
  %160 = icmp sgt i32 %159, 0
  br i1 %160, label %161, label %168

161:                                              ; preds = %154
  %162 = load i64, ptr %7, align 8
  %163 = load ptr, ptr %11, align 8
  %164 = getelementptr inbounds nuw %struct.CompactAttribute, ptr %163, i32 0, i32 1
  %165 = load i16, ptr %164, align 4
  %166 = sext i16 %165 to i64
  %167 = add i64 %162, %166
  br label %250

168:                                              ; preds = %154
  %169 = load ptr, ptr %11, align 8
  %170 = getelementptr inbounds nuw %struct.CompactAttribute, ptr %169, i32 0, i32 1
  %171 = load i16, ptr %170, align 4
  %172 = sext i16 %171 to i32
  %173 = icmp eq i32 %172, -1
  br i1 %173, label %174, label %241

174:                                              ; preds = %168
  %175 = load i64, ptr %7, align 8
  %176 = load i64, ptr %10, align 8
  %177 = call ptr @DatumGetPointer(i64 noundef %176)
  %178 = getelementptr inbounds nuw %struct.varattrib_1b, ptr %177, i32 0, i32 0
  %179 = load i8, ptr %178, align 1
  %180 = zext i8 %179 to i32
  %181 = icmp eq i32 %180, 1
  br i1 %181, label %182, label %212

182:                                              ; preds = %174
  %183 = load i64, ptr %10, align 8
  %184 = call ptr @DatumGetPointer(i64 noundef %183)
  %185 = getelementptr inbounds nuw %struct.varattrib_1b_e, ptr %184, i32 0, i32 1
  %186 = load i8, ptr %185, align 1
  %187 = zext i8 %186 to i32
  %188 = icmp eq i32 %187, 1
  br i1 %188, label %189, label %190

189:                                              ; preds = %182
  br label %209

190:                                              ; preds = %182
  %191 = load i64, ptr %10, align 8
  %192 = call ptr @DatumGetPointer(i64 noundef %191)
  %193 = getelementptr inbounds nuw %struct.varattrib_1b_e, ptr %192, i32 0, i32 1
  %194 = load i8, ptr %193, align 1
  %195 = zext i8 %194 to i32
  %196 = and i32 %195, -2
  %197 = icmp eq i32 %196, 2
  br i1 %197, label %198, label %199

198:                                              ; preds = %190
  br label %207

199:                                              ; preds = %190
  %200 = load i64, ptr %10, align 8
  %201 = call ptr @DatumGetPointer(i64 noundef %200)
  %202 = getelementptr inbounds nuw %struct.varattrib_1b_e, ptr %201, i32 0, i32 1
  %203 = load i8, ptr %202, align 1
  %204 = zext i8 %203 to i32
  %205 = icmp eq i32 %204, 18
  %206 = select i1 %205, i64 16, i64 0
  br label %207

207:                                              ; preds = %199, %198
  %208 = phi i64 [ 8, %198 ], [ %206, %199 ]
  br label %209

209:                                              ; preds = %207, %189
  %210 = phi i64 [ 8, %189 ], [ %208, %207 ]
  %211 = add i64 2, %210
  br label %238

212:                                              ; preds = %174
  %213 = load i64, ptr %10, align 8
  %214 = call ptr @DatumGetPointer(i64 noundef %213)
  %215 = getelementptr inbounds nuw %struct.varattrib_1b, ptr %214, i32 0, i32 0
  %216 = load i8, ptr %215, align 1
  %217 = zext i8 %216 to i32
  %218 = and i32 %217, 1
  %219 = icmp eq i32 %218, 1
  br i1 %219, label %220, label %228

220:                                              ; preds = %212
  %221 = load i64, ptr %10, align 8
  %222 = call ptr @DatumGetPointer(i64 noundef %221)
  %223 = getelementptr inbounds nuw %struct.varattrib_1b, ptr %222, i32 0, i32 0
  %224 = load i8, ptr %223, align 1
  %225 = zext i8 %224 to i32
  %226 = ashr i32 %225, 1
  %227 = and i32 %226, 127
  br label %235

228:                                              ; preds = %212
  %229 = load i64, ptr %10, align 8
  %230 = call ptr @DatumGetPointer(i64 noundef %229)
  %231 = getelementptr inbounds nuw %struct.anon, ptr %230, i32 0, i32 0
  %232 = load i32, ptr %231, align 4
  %233 = lshr i32 %232, 2
  %234 = and i32 %233, 1073741823
  br label %235

235:                                              ; preds = %228, %220
  %236 = phi i32 [ %227, %220 ], [ %234, %228 ]
  %237 = zext i32 %236 to i64
  br label %238

238:                                              ; preds = %235, %209
  %239 = phi i64 [ %211, %209 ], [ %237, %235 ]
  %240 = add i64 %175, %239
  br label %248

241:                                              ; preds = %168
  %242 = load i64, ptr %7, align 8
  %243 = load i64, ptr %10, align 8
  %244 = call ptr @DatumGetPointer(i64 noundef %243)
  %245 = call i64 @strlen(ptr noundef %244) #9
  %246 = add i64 %245, 1
  %247 = add i64 %242, %246
  br label %248

248:                                              ; preds = %241, %238
  %249 = phi i64 [ %240, %238 ], [ %247, %241 ]
  br label %250

250:                                              ; preds = %248, %161
  %251 = phi i64 [ %167, %161 ], [ %249, %248 ]
  store i64 %251, ptr %7, align 8
  br label %252

252:                                              ; preds = %250, %99
  br label %253

253:                                              ; preds = %252, %66
  store i32 0, ptr %12, align 4
  br label %254

254:                                              ; preds = %253, %27
  call void @llvm.lifetime.end.p0(i64 8, ptr %11) #8
  call void @llvm.lifetime.end.p0(i64 8, ptr %10) #8
  %255 = load i32, ptr %12, align 4
  switch i32 %255, label %262 [
    i32 0, label %256
    i32 4, label %257
  ]

256:                                              ; preds = %254
  br label %257

257:                                              ; preds = %256, %254
  %258 = load i32, ptr %8, align 4
  %259 = add i32 %258, 1
  store i32 %259, ptr %8, align 4
  br label %16, !llvm.loop !6

260:                                              ; preds = %16
  %261 = load i64, ptr %7, align 8
  store i32 1, ptr %12, align 4
  call void @llvm.lifetime.end.p0(i64 4, ptr %9) #8
  call void @llvm.lifetime.end.p0(i64 4, ptr %8) #8
  call void @llvm.lifetime.end.p0(i64 8, ptr %7) #8
  ret i64 %261

262:                                              ; preds = %254
  unreachable
}