; Function Attrs: nounwind uwtable
define dso_local i64 @heap_compute_data_size(ptr noundef readonly captures(none) %0, ptr noundef readonly captures(none) %1, ptr noundef readonly captures(none) %2) local_unnamed_addr #0 {
  %4 = load i32, ptr %0, align 8
  %5 = icmp sgt i32 %4, 0
  br i1 %5, label %.lr.ph, label %._crit_edge

.lr.ph:                                           ; preds = %3
  %6 = getelementptr inbounds nuw i8, ptr %0, i64 24
  %wide.trip.count = zext nneg i32 %4 to i64
  br label %7

7:                                                ; preds = %.lr.ph, %97
  %indvars.iv = phi i64 [ 0, %.lr.ph ], [ %indvars.iv.next, %97 ]
  %.055 = phi i64 [ 0, %.lr.ph ], [ %.1, %97 ]
  %8 = getelementptr inbounds nuw i8, ptr %2, i64 %indvars.iv
  %9 = load i8, ptr %8, align 1, !range !4, !noundef !5
  %10 = trunc nuw i8 %9 to i1
  br i1 %10, label %97, label %11

11:                                               ; preds = %7
  %12 = getelementptr inbounds nuw i64, ptr %1, i64 %indvars.iv
  %13 = load i64, ptr %12, align 8
  %14 = getelementptr inbounds nuw [0 x %struct.CompactAttribute], ptr %6, i64 0, i64 %indvars.iv
  %15 = getelementptr inbounds nuw i8, ptr %14, i64 4
  %16 = load i16, ptr %15, align 4
  %17 = icmp eq i16 %16, -1
  br i1 %17, label %18, label %57

18:                                               ; preds = %11
  %19 = getelementptr inbounds nuw i8, ptr %14, i64 7
  %20 = load i8, ptr %19, align 1, !range !4, !noundef !5
  %21 = trunc nuw i8 %20 to i1
  %22 = inttoptr i64 %13 to ptr
  br i1 %21, label %23, label %thread-pre-split

23:                                               ; preds = %18
  %24 = load i8, ptr %22, align 1
  %25 = and i8 %24, 3
  %26 = icmp eq i8 %25, 0
  br i1 %26, label %27, label %36

27:                                               ; preds = %23
  %28 = load i32, ptr %22, align 4
  %29 = lshr i32 %28, 2
  %30 = add nsw i32 %29, -4
  %31 = icmp ult i32 %30, 127
  br i1 %31, label %32, label %thread-pre-split

32:                                               ; preds = %27
  %33 = zext nneg i32 %29 to i64
  %34 = add i64 %.055, -3
  %35 = add i64 %34, %33
  br label %97

thread-pre-split:                                 ; preds = %18, %27
  %.pr = load i8, ptr %22, align 1
  br label %36

36:                                               ; preds = %thread-pre-split, %23
  %37 = phi i8 [ %.pr, %thread-pre-split ], [ %24, %23 ]
  %38 = icmp eq i8 %37, 1
  br i1 %38, label %39, label %55

39:                                               ; preds = %36
  %40 = getelementptr inbounds nuw i8, ptr %22, i64 1
  %41 = load i8, ptr %40, align 1
  %42 = and i8 %41, -2
  %43 = icmp eq i8 %42, 2
  br i1 %43, label %44, label %68

44:                                               ; preds = %39
  %45 = getelementptr inbounds nuw i8, ptr %14, i64 12
  %46 = load i8, ptr %45, align 4
  %47 = zext i8 %46 to i64
  %48 = add i64 %.055, -1
  %49 = add i64 %48, %47
  %50 = sub nsw i64 0, %47
  %51 = and i64 %49, %50
  %52 = tail call ptr @DatumGetEOHP(i64 noundef %13) #12
  %53 = tail call i64 @EOH_get_flat_size(ptr noundef %52) #12
  %54 = add i64 %51, %53
  br label %97

55:                                               ; preds = %36
  %56 = and i8 %37, 1
  %.not = icmp eq i8 %56, 0
  br i1 %.not, label %77, label %74

57:                                               ; preds = %11
  %58 = getelementptr inbounds nuw i8, ptr %14, i64 12
  %59 = load i8, ptr %58, align 4
  %60 = zext i8 %59 to i64
  %61 = add i64 %.055, -1
  %62 = add i64 %61, %60
  %63 = sub nsw i64 0, %60
  %64 = and i64 %62, %63
  %65 = icmp sgt i16 %16, 0
  br i1 %65, label %66, label %90

66:                                               ; preds = %57
  %67 = zext nneg i16 %16 to i64
  br label %94

68:                                               ; preds = %39
  %69 = getelementptr inbounds nuw i8, ptr %22, i64 1
  %70 = load i8, ptr %69, align 1
  %.off = add i8 %70, -1
  %switch = icmp ult i8 %.off, 3
  br i1 %switch, label %94, label %71

71:                                               ; preds = %68
  %72 = icmp eq i8 %70, 18
  %73 = select i1 %72, i64 18, i64 2
  br label %94

74:                                               ; preds = %55
  %75 = lshr i8 %37, 1
  %76 = zext nneg i8 %75 to i32
  br label %87

77:                                               ; preds = %55
  %78 = getelementptr inbounds nuw i8, ptr %14, i64 12
  %79 = load i8, ptr %78, align 4
  %80 = zext i8 %79 to i64
  %81 = add i64 %.055, -1
  %82 = add i64 %81, %80
  %83 = sub nsw i64 0, %80
  %84 = and i64 %82, %83
  %85 = load i32, ptr %22, align 4
  %86 = lshr i32 %85, 2
  br label %87

87:                                               ; preds = %77, %74
  %.ph.ph66 = phi i64 [ %.055, %74 ], [ %84, %77 ]
  %88 = phi i32 [ %76, %74 ], [ %86, %77 ]
  %89 = zext nneg i32 %88 to i64
  br label %94

90:                                               ; preds = %57
  %91 = inttoptr i64 %13 to ptr
  %92 = tail call i64 @strlen(ptr noundef nonnull dereferenceable(1) %91) #13
  %93 = add i64 %92, 1
  br label %94

94:                                               ; preds = %68, %87, %71, %90, %66
  %95 = phi i64 [ %64, %66 ], [ %64, %90 ], [ %.ph.ph66, %87 ], [ %.055, %71 ], [ %.055, %68 ]
  %.pn = phi i64 [ %67, %66 ], [ %93, %90 ], [ %89, %87 ], [ %73, %71 ], [ 10, %68 ]
  %96 = add i64 %.pn, %95
  br label %97

97:                                               ; preds = %32, %94, %44, %7
  %.1 = phi i64 [ %.055, %7 ], [ %35, %32 ], [ %54, %44 ], [ %96, %94 ]
  %indvars.iv.next = add nuw nsw i64 %indvars.iv, 1
  %exitcond.not = icmp eq i64 %indvars.iv.next, %wide.trip.count
  br i1 %exitcond.not, label %._crit_edge, label %7, !llvm.loop !6

._crit_edge:                                      ; preds = %97, %3
  %.0.lcssa = phi i64 [ 0, %3 ], [ %.1, %97 ]
  ret i64 %.0.lcssa
}